target datalayout = "e-m:e-p270:32:32-p271:32:32-p272:64:64-i64:64-i128:128-f80:128-n8:16:32:64-S128"
target triple = "x86_64-pc-linux-gnu"

; Function Attrs: nounwind uwtable
define dso_local i64 @bit_ffc(ptr noundef %0) #0 {
  %2 = alloca ptr, align 8
  %3 = alloca i64, align 8
  %4 = alloca i64, align 8
  %5 = alloca i32, align 4
  %6 = alloca i32, align 4
  store ptr %0, ptr %2, align 8
  call void @llvm.lifetime.start.p0(i64 8, ptr %3) #12
  store i64 0, ptr %3, align 8
  call void @llvm.lifetime.start.p0(i64 8, ptr %4) #12
  store i64 -1, ptr %4, align 8
  br label %7

7:                                                ; preds = %1
  br label %8

8:                                                ; preds = %7
  br label %9

9:                                                ; preds = %8
  br label %10

10:                                               ; preds = %73, %71, %9
  %11 = load i64, ptr %3, align 8
  %12 = load ptr, ptr %2, align 8
  %13 = getelementptr inbounds i64, ptr %12, i64 1
  %14 = load i64, ptr %13, align 8
  %15 = icmp slt i64 %11, %14
  br i1 %15, label %16, label %19

16:                                               ; preds = %10
  %17 = load i64, ptr %4, align 8
  %18 = icmp eq i64 %17, -1
  br label %19

19:                                               ; preds = %16, %10
  %20 = phi i1 [ false, %10 ], [ %18, %16 ]
  br i1 %20, label %21, label %74

21:                                               ; preds = %19
  call void @llvm.lifetime.start.p0(i64 4, ptr %5) #12
  %22 = load i64, ptr %3, align 8
  %23 = ashr i64 %22, 6
  %24 = add nsw i64 %23, 2
  %25 = trunc i64 %24 to i32
  store i32 %25, ptr %5, align 4
  %26 = load ptr, ptr %2, align 8
  %27 = load i32, ptr %5, align 4
  %28 = sext i32 %27 to i64
  %29 = getelementptr inbounds i64, ptr %26, i64 %28
  %30 = load i64, ptr %29, align 8
  %31 = icmp eq i64 %30, -1
  br i1 %31, label %32, label %35

32:                                               ; preds = %21
  %33 = load i64, ptr %3, align 8
  %34 = add i64 %33, 64
  store i64 %34, ptr %3, align 8
  store i32 4, ptr %6, align 4
  br label %71, !llvm.loop !14

35:                                               ; preds = %21
  br label %36

36:                                               ; preds = %67, %35
  %37 = load i64, ptr %3, align 8
  %38 = load ptr, ptr %2, align 8
  %39 = getelementptr inbounds i64, ptr %38, i64 1
  %40 = load i64, ptr %39, align 8
  %41 = icmp slt i64 %37, %40
  br i1 %41, label %42, label %49

42:                                               ; preds = %36
  %43 = load i64, ptr %3, align 8
  %44 = ashr i64 %43, 6
  %45 = add nsw i64 %44, 2
  %46 = load i32, ptr %5, align 4
  %47 = sext i32 %46 to i64
  %48 = icmp eq i64 %45, %47
  br label %49

49:                                               ; preds = %42, %36
  %50 = phi i1 [ false, %36 ], [ %48, %42 ]
  br i1 %50, label %51, label %70

51:                                               ; preds = %49
  %52 = load ptr, ptr %2, align 8
  %53 = load i64, ptr %3, align 8
  %54 = ashr i64 %53, 6
  %55 = add nsw i64 %54, 2
  %56 = getelementptr inbounds i64, ptr %52, i64 %55
  %57 = load i64, ptr %56, align 8
  %58 = load i64, ptr %3, align 8
  %59 = and i64 %58, 63
  %60 = shl i64 1, %59
  %61 = and i64 %57, %60
  %62 = icmp ne i64 %61, 0
  br i1 %62, label %63, label %64

63:                                               ; preds = %51
  br i1 true, label %67, label %65

64:                                               ; preds = %51
  br i1 false, label %67, label %65

65:                                               ; preds = %64, %63
  %66 = load i64, ptr %3, align 8
  store i64 %66, ptr %4, align 8
  br label %70

67:                                               ; preds = %64, %63
  %68 = load i64, ptr %3, align 8
  %69 = add nsw i64 %68, 1
  store i64 %69, ptr %3, align 8
  br label %36, !llvm.loop !15

70:                                               ; preds = %65, %49
  store i32 0, ptr %6, align 4
  br label %71

71:                                               ; preds = %70, %32
  call void @llvm.lifetime.end.p0(i64 4, ptr %5) #12
  %72 = load i32, ptr %6, align 4
  switch i32 %72, label %76 [
    i32 0, label %73
    i32 4, label %10
  ]

73:                                               ; preds = %71
  br label %10, !llvm.loop !14

74:                                               ; preds = %19
  %75 = load i64, ptr %4, align 8
  store i32 1, ptr %6, align 4
  call void @llvm.lifetime.end.p0(i64 8, ptr %4) #12
  call void @llvm.lifetime.end.p0(i64 8, ptr %3) #12
  ret i64 %75

76:                                               ; preds = %71
  unreachable
}