; Function Attrs: nofree norecurse nosync nounwind memory(argmem: read) uwtable
define dso_local range(i64 -9223372036854775808, 9223372036854775807) i64 @bit_ffc(ptr noundef readonly captures(none) %0) #3 {
  %2 = getelementptr inbounds nuw i8, ptr %0, i64 8
  %3 = load i64, ptr %2, align 8
  %4 = icmp sgt i64 %3, 0
  br i1 %4, label %.lr.ph29, label %._crit_edge

.lr.ph29:                                         ; preds = %1, %.critedge
  %.028 = phi i64 [ %.1, %.critedge ], [ 0, %1 ]
  %5 = shl i64 %.028, 26
  %sext = add i64 %5, 8589934592
  %6 = ashr i64 %sext, 32
  %7 = getelementptr inbounds i64, ptr %0, i64 %6
  %8 = load i64, ptr %7, align 8
  %9 = icmp eq i64 %8, -1
  br i1 %9, label %11, label %.preheader

.preheader:                                       ; preds = %.lr.ph29
  %10 = icmp slt i64 %.028, %3
  br i1 %10, label %.lr.ph, label %.critedge

11:                                               ; preds = %.lr.ph29
  %12 = add i64 %.028, 64
  br label %.critedge, !llvm.loop !14

.lr.ph:                                           ; preds = %.preheader, %20
  %.220 = phi i64 [ %21, %20 ], [ %.028, %.preheader ]
  %13 = ashr i64 %.220, 6
  %14 = add nsw i64 %13, 2
  %15 = icmp eq i64 %14, %6
  br i1 %15, label %16, label %.critedge

16:                                               ; preds = %.lr.ph
  %17 = and i64 %.220, 63
  %18 = shl nuw i64 1, %17
  %19 = and i64 %8, %18
  %.not = icmp eq i64 %19, 0
  br i1 %.not, label %.critedge, label %20

20:                                               ; preds = %16
  %21 = add i64 %.220, 1
  %exitcond.not = icmp eq i64 %21, %3
  br i1 %exitcond.not, label %._crit_edge, label %.lr.ph, !llvm.loop !15

.critedge:                                        ; preds = %16, %.lr.ph, %.preheader, %11
  %.117 = phi i64 [ -1, %11 ], [ -1, %.preheader ], [ %.220, %16 ], [ -1, %.lr.ph ]
  %.1 = phi i64 [ %12, %11 ], [ %.028, %.preheader ], [ %.220, %.lr.ph ], [ %.220, %16 ]
  %22 = icmp slt i64 %.1, %3
  %23 = icmp eq i64 %.117, -1
  %24 = and i1 %23, %22
  br i1 %24, label %.lr.ph29, label %._crit_edge

._crit_edge:                                      ; preds = %.critedge, %20, %1
  %.016.lcssa = phi i64 [ -1, %1 ], [ -1, %20 ], [ %.117, %.critedge ]
  ret i64 %.016.lcssa
}